Certificate:
    Data:
        Version: 3 (0x2)
        Serial Number:
            01:f0:f7:9d:59:dd:6e:50:f7:42:73:71:50
        Signature Algorithm: ecdsa-with-SHA256
        Issuer: C = US, O = Google Trust Services LLC, CN = GTS LTSR
        Validity
            Not Before: Nov  1 00:00:42 2018 GMT
            Not After : Nov  1 00:00:42 2042 GMT
        Subject: C = US, O = Google Trust Services LLC, CN = GTS LTSR
        Subject Public Key Info:
            Public Key Algorithm: id-ecPublicKey
                Public-Key: (256 bit)
                pub:
                    04:cd:f1:8c:8e:da:ef:b2:09:0a:19:77:00:24:50:
                    db:f9:73:77:68:91:f5:0b:7e:b0:3a:40:98:05:57:
                    65:cc:b8:43:6d:41:92:06:e4:75:0e:4b:a8:c5:9f:
                    c7:f4:c9:29:55:78:e4:42:c6:a1:72:8c:32:72:46:
                    7f:3a:77:e2:24
                ASN1 OID: prime256v1
                NIST CURVE: P-256
        X509v3 extensions:
            X509v3 Key Usage: critical
                Digital Signature, Certificate Sign, CRL Sign
            X509v3 Basic Constraints: critical
                CA:TRUE
            X509v3 Subject Key Identifier: 
                3E:FE:FF:CC:52:EB:BF:34:3E:3D:F3:40:D0:E4:25:B1:5F:B8:BB:52
    Signature Algorithm: ecdsa-with-SHA256
         30:45:02:21:00:f2:ae:7f:f5:6d:04:7a:86:c3:74:d4:c1:42:
         2a:ed:37:da:13:1a:77:6c:7e:db:8c:20:66:55:72:6e:a5:3f:
         45:02:20:6b:d1:29:82:b6:cb:a4:9a:21:a0:a5:a8:e3:7f:f8:
         05:8a:01:8c:df:81:7d:d3:6d:5b:09:6b:35:31:b2:f4:48
-----BEGIN CERTIFICATE-----
MIIBxTCCAWugAwIBAgINAfD3nVndblD3QnNxUDAKBggqhkjOPQQDAjBEMQswCQYD
VQQGEwJVUzEiMCAGA1UEChMZR29vZ2xlIFRydXN0IFNlcnZpY2VzIExMQzERMA8G
A1UEAxMIR1RTIExUU1IwHhcNMTgxMTAxMDAwMDQyWhcNNDIxMTAxMDAwMDQyWjBE
MQswCQYDVQQGEwJVUzEiMCAGA1UEChMZR29vZ2xlIFRydXN0IFNlcnZpY2VzIExM
QzERMA8GA1UEAxMIR1RTIExUU1IwWTATBgcqhkjOPQIBBggqhkjOPQMBBwNCAATN
8YyO2u+yCQoZdwAkUNv5c3dokfULfrA6QJgFV2XMuENtQZIG5HUOS6jFn8f0ySlV
eORCxqFyjDJyRn86d+Iko0IwQDAOBgNVHQ8BAf8EBAMCAYYwDwYDVR0TAQH/BAUw
AwEB/zAdBgNVHQ4EFgQUPv7/zFLrvzQ+PfNA0OQlsV+4u1IwCgYIKoZIzj0EAwID
SAAwRQIhAPKuf/VtBHqGw3TUwUIq7TfaExp3bH7bjCBmVXJupT9FAiBr0SmCtsuk
miGgpajjf/gFigGM34F9021bCWs1MbL0SA==
-----END CERTIFICATE-----
